target datalayout = "e-m:e-p270:32:32-p271:32:32-p272:64:64-i64:64-i128:128-f80:128-n8:16:32:64-S128"
target triple = "x86_64-unknown-linux-gnu"

%"class.sat::literal" = type { i32 }
%"class.sat::cut_simplifier" = type { ptr, %"struct.sat::cut_simplifier::stats", %"struct.sat::cut_simplifier::config", %"class.sat::aig_cuts", i32, %class.svector, ptr, %class.hashtable }
%"struct.sat::cut_simplifier::stats" = type { i32, i32, i32, i32, i32, i32, i32, i32, i32, i32, i32, i32, i32 }
%"struct.sat::cut_simplifier::config" = type { i8, i8, i8, i8, i8, i8, i8 }
%"class.sat::aig_cuts" = type { %class.random_gen, %"struct.sat::aig_cuts::config", %class.vector, %class.svector, %class.region, %"class.sat::cut_set", %"class.sat::cut_set", %"class.sat::cut_set", %class.vector.1, %class.svector.2, %class.svector.2, i32, i32, %class.svector.4, i32, %"class.std::function", %"class.std::function", %"class.std::function.6", %"class.std::function.6", %class.svector, [6 x ptr], [6 x i64], [6 x %"class.sat::literal"] }
%class.random_gen = type { i32 }
%"struct.sat::aig_cuts::config" = type <{ i32, i32, i32, i8, [3 x i8] }>
%class.vector = type { ptr }
%class.region = type { ptr, ptr, ptr, ptr, ptr }
%"class.sat::cut_set" = type { i32, ptr, i32, i32, ptr }
%class.vector.1 = type { ptr }
%class.svector.2 = type { %class.vector.3 }
%class.vector.3 = type { ptr }
%class.svector.4 = type { %class.vector.5 }
%class.vector.5 = type { ptr }
%"class.std::function" = type { %"class.std::_Function_base", ptr }
%"class.std::_Function_base" = type { %"union.std::_Any_data", ptr }
%"union.std::_Any_data" = type { %"union.std::_Nocopy_types" }
%"union.std::_Nocopy_types" = type { { i64, i64 } }
%"class.std::function.6" = type { %"class.std::_Function_base", ptr }
%class.svector = type { %class.vector.0 }
%class.vector.0 = type { ptr }
%class.hashtable = type { %class.core_hashtable.base, [4 x i8] }
%class.core_hashtable.base = type <{ ptr, i32, i32, i32 }>

; Function Attrs: mustprogress nounwind uwtable
define linkonce_odr hidden i32 @_ZN3satcoENS_7literalE(i32 %l.coerce) #4 comdat {
entry:
  %retval = alloca %"class.sat::literal", align 4
  %l = alloca %"class.sat::literal", align 4
  %coerce.dive = getelementptr inbounds %"class.sat::literal", ptr %l, i32 0, i32 0
  store i32 %l.coerce, ptr %coerce.dive, align 4
  %m_val = getelementptr inbounds %"class.sat::literal", ptr %l, i32 0, i32 0
  %0 = load i32, ptr %m_val, align 4
  %xor = xor i32 %0, 1
  %m_val1 = getelementptr inbounds %"class.sat::literal", ptr %l, i32 0, i32 0
  store i32 %xor, ptr %m_val1, align 4
  call void @llvm.memcpy.p0.p0.i64(ptr align 4 %retval, ptr align 4 %l, i64 4, i1 false)
  %coerce.dive2 = getelementptr inbounds %"class.sat::literal", ptr %retval, i32 0, i32 0
  %1 = load i32, ptr %coerce.dive2, align 4
  ret i32 %1
}

; Function Attrs: mustprogress uwtable
define hidden void @_ZN3sat14cut_simplifier7add_iffENS_7literalES1_S1_(ptr noundef nonnull align 8 dereferenceable(600) %this, i32 %head.coerce, i32 %l1.coerce, i32 %l2.coerce) #5 align 2 {
entry:
  %head = alloca %"class.sat::literal", align 4
  %l1 = alloca %"class.sat::literal", align 4
  %l2 = alloca %"class.sat::literal", align 4
  %this.addr = alloca ptr, align 8
  %lits = alloca [2 x %"class.sat::literal"], align 4
  %agg.tmp = alloca %"class.sat::literal", align 4
  %agg.tmp6 = alloca %"class.sat::literal", align 4
  %coerce.dive = getelementptr inbounds %"class.sat::literal", ptr %head, i32 0, i32 0
  store i32 %head.coerce, ptr %coerce.dive, align 4
  %coerce.dive1 = getelementptr inbounds %"class.sat::literal", ptr %l1, i32 0, i32 0
  store i32 %l1.coerce, ptr %coerce.dive1, align 4
  %coerce.dive2 = getelementptr inbounds %"class.sat::literal", ptr %l2, i32 0, i32 0
  store i32 %l2.coerce, ptr %coerce.dive2, align 4
  store ptr %this, ptr %this.addr, align 8
  %this3 = load ptr, ptr %this.addr, align 8
  %arrayinit.begin = getelementptr inbounds [2 x %"class.sat::literal"], ptr %lits, i64 0, i64 0
  call void @llvm.memcpy.p0.p0.i64(ptr align 4 %arrayinit.begin, ptr align 4 %l1, i64 4, i1 false)
  %arrayinit.element = getelementptr inbounds %"class.sat::literal", ptr %arrayinit.begin, i64 1
  call void @llvm.memcpy.p0.p0.i64(ptr align 4 %agg.tmp, ptr align 4 %l2, i64 4, i1 false)
  %coerce.dive4 = getelementptr inbounds %"class.sat::literal", ptr %agg.tmp, i32 0, i32 0
  %0 = load i32, ptr %coerce.dive4, align 4
  %call = call i32 @_ZN3satcoENS_7literalE(i32 %0)
  %coerce.dive5 = getelementptr inbounds %"class.sat::literal", ptr %arrayinit.element, i32 0, i32 0
  store i32 %call, ptr %coerce.dive5, align 4
  %m_aig_cuts = getelementptr inbounds %"class.sat::cut_simplifier", ptr %this3, i32 0, i32 3
  call void @llvm.memcpy.p0.p0.i64(ptr align 4 %agg.tmp6, ptr align 4 %head, i64 4, i1 false)
  %arraydecay = getelementptr inbounds [2 x %"class.sat::literal"], ptr %lits, i64 0, i64 0
  %coerce.dive7 = getelementptr inbounds %"class.sat::literal", ptr %agg.tmp6, i32 0, i32 0
  %1 = load i32, ptr %coerce.dive7, align 4
  call void @_ZN3sat8aig_cuts8add_nodeENS_7literalENS_7bool_opEjPKS1_(ptr noundef nonnull align 8 dereferenceable(480) %m_aig_cuts, i32 %1, i32 noundef 3, i32 noundef 2, ptr noundef %arraydecay)
  %m_stats = getelementptr inbounds %"class.sat::cut_simplifier", ptr %this3, i32 0, i32 1
  %m_num_xors = getelementptr inbounds %"struct.sat::cut_simplifier::stats", ptr %m_stats, i32 0, i32 3
  %2 = load i32, ptr %m_num_xors, align 4
  %inc = add i32 %2, 1
  store i32 %inc, ptr %m_num_xors, align 4
  ret void
}