; Function Attrs: mustprogress uwtable
define hidden void @_ZN3sat14cut_simplifier7add_iffENS_7literalES1_S1_(ptr noundef nonnull align 8 dereferenceable(600) %this, i32 %head.coerce, i32 %l1.coerce, i32 %l2.coerce) local_unnamed_addr #3 align 2 {
entry:
  %lits = alloca [2 x %"class.sat::literal"], align 4
  store i32 %l1.coerce, ptr %lits, align 4
  %arrayinit.element = getelementptr inbounds i8, ptr %lits, i64 4
  %xor.i = xor i32 %l2.coerce, 1
  store i32 %xor.i, ptr %arrayinit.element, align 4
  %m_aig_cuts = getelementptr inbounds i8, ptr %this, i64 72
  call void @_ZN3sat8aig_cuts8add_nodeENS_7literalENS_7bool_opEjPKS1_(ptr noundef nonnull align 8 dereferenceable(480) %m_aig_cuts, i32 %head.coerce, i32 noundef 3, i32 noundef 2, ptr noundef nonnull %lits)
  %m_num_xors = getelementptr inbounds i8, ptr %this, i64 20
  %0 = load i32, ptr %m_num_xors, align 4
  %inc = add i32 %0, 1
  store i32 %inc, ptr %m_num_xors, align 4
  ret void
}